; Function Attrs: inlinehint mustprogress nounwind uwtable
define internal fastcc void @_ZN12_GLOBAL__N_113xilinx_srl_pm13state_fixed_tD2Ev(ptr noundef nonnull readonly align 8 captures(none) dereferenceable(24) %0) unnamed_addr #4 align 2 personality ptr @__gxx_personality_v0 {
  %2 = getelementptr inbounds nuw i8, ptr %0, i64 4
  %3 = load i32, ptr %2, align 4, !tbaa !118
  %4 = load i8, ptr @_ZN5Yosys5RTLIL8IdString17destruct_guard_okE, align 1, !tbaa !135, !range !136, !noundef !137
  %5 = trunc nuw i8 %4 to i1
  %6 = icmp ne i32 %3, 0
  %or.cond.i.i = and i1 %6, %5
  br i1 %or.cond.i.i, label %7, label %_ZN5Yosys5RTLIL8IdStringD2Ev.exit

7:                                                ; preds = %1
  %8 = sext i32 %3 to i64
  %9 = load ptr, ptr @_ZN5Yosys5RTLIL8IdString24global_refcount_storage_E, align 8, !tbaa !138
  %10 = getelementptr inbounds nuw i32, ptr %9, i64 %8
  %11 = load i32, ptr %10, align 4, !tbaa !139
  %12 = add nsw i32 %11, -1
  store i32 %12, ptr %10, align 4, !tbaa !139
  %13 = icmp sgt i32 %11, 1
  br i1 %13, label %_ZN5Yosys5RTLIL8IdStringD2Ev.exit, label %14

14:                                               ; preds = %7
  invoke void @_ZN5Yosys5RTLIL8IdString14free_referenceEi(i32 noundef %3)
          to label %._ZN5Yosys5RTLIL8IdStringD2Ev.exit_crit_edge unwind label %15

._ZN5Yosys5RTLIL8IdStringD2Ev.exit_crit_edge:     ; preds = %14
  %.pre = load i8, ptr @_ZN5Yosys5RTLIL8IdString17destruct_guard_okE, align 1, !tbaa !135, !range !136
  br label %_ZN5Yosys5RTLIL8IdStringD2Ev.exit

15:                                               ; preds = %14
  %16 = landingpad { ptr, i32 }
          catch ptr null
  %17 = extractvalue { ptr, i32 } %16, 0
  tail call void @__clang_call_terminate(ptr %17) #30
  unreachable

_ZN5Yosys5RTLIL8IdStringD2Ev.exit:                ; preds = %._ZN5Yosys5RTLIL8IdStringD2Ev.exit_crit_edge, %1, %7
  %18 = phi i8 [ %.pre, %._ZN5Yosys5RTLIL8IdStringD2Ev.exit_crit_edge ], [ %4, %1 ], [ 1, %7 ]
  %19 = load i32, ptr %0, align 8, !tbaa !118
  %20 = trunc nuw i8 %18 to i1
  %21 = icmp ne i32 %19, 0
  %or.cond.i.i1 = and i1 %21, %20
  br i1 %or.cond.i.i1, label %22, label %_ZN5Yosys5RTLIL8IdStringD2Ev.exit2

22:                                               ; preds = %_ZN5Yosys5RTLIL8IdStringD2Ev.exit
  %23 = sext i32 %19 to i64
  %24 = load ptr, ptr @_ZN5Yosys5RTLIL8IdString24global_refcount_storage_E, align 8, !tbaa !138
  %25 = getelementptr inbounds nuw i32, ptr %24, i64 %23
  %26 = load i32, ptr %25, align 4, !tbaa !139
  %27 = add nsw i32 %26, -1
  store i32 %27, ptr %25, align 4, !tbaa !139
  %28 = icmp sgt i32 %26, 1
  br i1 %28, label %_ZN5Yosys5RTLIL8IdStringD2Ev.exit2, label %29

29:                                               ; preds = %22
  invoke void @_ZN5Yosys5RTLIL8IdString14free_referenceEi(i32 noundef %19)
          to label %_ZN5Yosys5RTLIL8IdStringD2Ev.exit2 unwind label %30

30:                                               ; preds = %29
  %31 = landingpad { ptr, i32 }
          catch ptr null
  %32 = extractvalue { ptr, i32 } %31, 0
  tail call void @__clang_call_terminate(ptr %32) #30
  unreachable

_ZN5Yosys5RTLIL8IdStringD2Ev.exit2:               ; preds = %_ZN5Yosys5RTLIL8IdStringD2Ev.exit, %22, %29
  ret void
}